; Function Attrs: nounwind uwtable
define internal void @fn_region_enter_printf_va_fl(ptr noundef %0, i32 noundef %1, i64 noundef %2, ptr noundef %3, ptr noundef %4, ptr noundef %5, ptr noundef %6, ptr noundef %7) #0 {
  %9 = alloca [1 x %struct.__va_list_tag], align 16
  %10 = alloca i64, align 8
  %11 = alloca %struct.strbuf, align 8
  store i64 %2, ptr %10, align 8, !tbaa !9
  call void @llvm.lifetime.start.p0(i64 24, ptr nonnull %11) #7
  call void @llvm.memcpy.p0.p0.i64(ptr noundef nonnull align 8 dereferenceable(24) %11, ptr noundef nonnull align 8 dereferenceable(24) @__const.fn_counter.buf_payload, i64 24, i1 false)
  %.not = icmp eq ptr %4, null
  br i1 %.not, label %13, label %12

12:                                               ; preds = %8
  call void (ptr, ptr, ...) @strbuf_addf(ptr noundef nonnull %11, ptr noundef nonnull @.str.57, ptr noundef nonnull %4) #7
  br label %13

13:                                               ; preds = %12, %8
  %.not11 = icmp eq ptr %6, null
  br i1 %.not11, label %maybe_append_string_va.exit, label %14

14:                                               ; preds = %13
  %15 = load i8, ptr %6, align 1, !tbaa !4
  %.not12 = icmp eq i8 %15, 0
  br i1 %.not12, label %maybe_append_string_va.exit, label %16

16:                                               ; preds = %14
  %17 = load i64, ptr %11, align 8, !tbaa !11
  %.not.i.i = icmp eq i64 %17, 0
  br i1 %.not.i.i, label %strbuf_avail.exit.thread.i, label %strbuf_avail.exit.i

strbuf_avail.exit.i:                              ; preds = %16
  %18 = getelementptr inbounds nuw i8, ptr %11, i64 8
  %19 = load i64, ptr %18, align 8, !tbaa !15
  %.neg.i = add i64 %19, 1
  %.not.i = icmp eq i64 %17, %.neg.i
  br i1 %.not.i, label %strbuf_avail.exit.thread.i, label %20

strbuf_avail.exit.thread.i:                       ; preds = %strbuf_avail.exit.i, %16
  call void @strbuf_grow(ptr noundef nonnull %11, i64 noundef 1) #7
  %.phi.trans.insert.i = getelementptr inbounds nuw i8, ptr %11, i64 8
  %.pre.i = load i64, ptr %.phi.trans.insert.i, align 8, !tbaa !15
  %.pre7.i = add i64 %.pre.i, 1
  br label %20

20:                                               ; preds = %strbuf_avail.exit.thread.i, %strbuf_avail.exit.i
  %.pre-phi.i = phi i64 [ %.pre7.i, %strbuf_avail.exit.thread.i ], [ %.neg.i, %strbuf_avail.exit.i ]
  %21 = phi i64 [ %.pre.i, %strbuf_avail.exit.thread.i ], [ %19, %strbuf_avail.exit.i ]
  %22 = getelementptr inbounds nuw i8, ptr %11, i64 16
  %23 = load ptr, ptr %22, align 8, !tbaa !16
  %24 = getelementptr inbounds nuw i8, ptr %11, i64 8
  store i64 %.pre-phi.i, ptr %24, align 8, !tbaa !15
  %25 = getelementptr inbounds nuw i8, ptr %23, i64 %21
  store i8 32, ptr %25, align 1, !tbaa !4
  %26 = load ptr, ptr %22, align 8, !tbaa !16
  %27 = load i64, ptr %24, align 8, !tbaa !15
  %28 = getelementptr inbounds nuw i8, ptr %26, i64 %27
  store i8 0, ptr %28, align 1, !tbaa !4
  %29 = load i8, ptr %6, align 1, !tbaa !4
  %.not5.i = icmp eq i8 %29, 0
  br i1 %.not5.i, label %maybe_append_string_va.exit, label %30

30:                                               ; preds = %20
  call void @llvm.lifetime.start.p0(i64 24, ptr nonnull %9) #7
  call void @llvm.va_copy.p0(ptr nonnull %9, ptr %7)
  call void @strbuf_vaddf(ptr noundef nonnull %11, ptr noundef nonnull %6, ptr noundef nonnull %9) #7
  call void @llvm.va_end.p0(ptr nonnull %9)
  call void @llvm.lifetime.end.p0(i64 24, ptr nonnull %9) #7
  br label %maybe_append_string_va.exit

maybe_append_string_va.exit:                      ; preds = %30, %20, %14, %13
  call fastcc void @perf_io_write_fl(ptr noundef %0, i32 noundef %1, ptr noundef nonnull @.str.56, ptr noundef %5, ptr noundef nonnull %10, ptr noundef null, ptr noundef %3, ptr noundef %11)
  call void @strbuf_release(ptr noundef nonnull %11) #7
  call void @llvm.lifetime.end.p0(i64 24, ptr nonnull %11) #7
  ret void
}